target datalayout = "e-m:e-p270:32:32-p271:32:32-p272:64:64-i64:64-i128:128-f80:128-n8:16:32:64-S128"
target triple = "x86_64-pc-linux-gnu"

%struct.rb_data_type_struct = type { ptr, %struct.anon.12, ptr, ptr, i64 }
%struct.anon.12 = type { ptr, ptr, ptr, ptr, [1 x ptr] }
%struct.enumerator = type { i64, i64, i64, i64, i64, i64, i64, i64, i64, i64, ptr, i32 }
%struct.RBasic = type { i64, i64 }
%struct.RTypedData = type { %struct.RBasic, ptr, i64, ptr }

@rb_cEnumerator = dso_local global i64 0, align 8
@rb_cLazy = internal global i64 0, align 8
@rb_cEnumChain = internal global i64 0, align 8
@sym_each = internal global i64 0, align 8
@enumerator_data_type = internal constant %struct.rb_data_type_struct { ptr @.str.102, %struct.anon.12 { ptr @enumerator_refs, ptr inttoptr (i64 -1 to ptr), ptr null, ptr null, [1 x ptr] zeroinitializer }, ptr null, ptr null, i64 16419 }, align 8

; Function Attrs: inlinehint nounwind sspstrong uwtable
define internal zeroext i1 @RTYPEDDATA_EMBEDDED_P(i64 noundef %0) #4 {
  %2 = alloca i64, align 8
  store i64 %0, ptr %2, align 8, !tbaa !7
  %3 = load i64, ptr %2, align 8, !tbaa !7
  %4 = inttoptr i64 %3 to ptr
  %5 = getelementptr inbounds nuw %struct.RTypedData, ptr %4, i32 0, i32 2
  %6 = load i64, ptr %5, align 8, !tbaa !92
  %7 = and i64 %6, 2
  %8 = icmp ne i64 %7, 0
  ret i1 %8
}

; Function Attrs: inlinehint nounwind sspstrong uwtable
define internal ptr @RTYPEDDATA_GET_DATA(i64 noundef %0) #4 {
  %2 = alloca i64, align 8
  %3 = alloca i64, align 8
  store i64 %0, ptr %2, align 8, !tbaa !7
  call void @llvm.lifetime.start.p0(i64 8, ptr %3) #23
  store i64 32, ptr %3, align 8, !tbaa !7
  %4 = load i64, ptr %2, align 8, !tbaa !7
  %5 = call zeroext i1 @RTYPEDDATA_EMBEDDED_P(i64 noundef %4)
  br i1 %5, label %6, label %10

6:                                                ; preds = %1
  %7 = load i64, ptr %2, align 8, !tbaa !7
  %8 = inttoptr i64 %7 to ptr
  %9 = getelementptr i8, ptr %8, i64 32
  br label %15

10:                                               ; preds = %1
  %11 = load i64, ptr %2, align 8, !tbaa !7
  %12 = inttoptr i64 %11 to ptr
  %13 = getelementptr inbounds nuw %struct.RTypedData, ptr %12, i32 0, i32 3
  %14 = load ptr, ptr %13, align 8, !tbaa !89
  br label %15

15:                                               ; preds = %10, %6
  %16 = phi ptr [ %9, %6 ], [ %14, %10 ]
  call void @llvm.lifetime.end.p0(i64 8, ptr %3) #23
  ret ptr %16
}

; Function Attrs: nounwind sspstrong uwtable
define internal i64 @enumerator_allocate(i64 noundef %0) #0 {
  %2 = alloca i64, align 8
  %3 = alloca ptr, align 8
  %4 = alloca i64, align 8
  %5 = alloca i64, align 8
  %6 = alloca i64, align 8
  store i64 %0, ptr %2, align 8, !tbaa !7
  call void @llvm.lifetime.start.p0(i64 8, ptr %3) #23
  call void @llvm.lifetime.start.p0(i64 8, ptr %4) #23
  call void @llvm.lifetime.start.p0(i64 8, ptr %5) #23
  %7 = load i64, ptr %2, align 8, !tbaa !7
  %8 = call i64 @rb_data_typed_object_zalloc(i64 noundef %7, i64 noundef 96, ptr noundef @enumerator_data_type)
  store i64 %8, ptr %5, align 8, !tbaa !7
  %9 = load i64, ptr %5, align 8, !tbaa !7
  %10 = call ptr @RTYPEDDATA_GET_DATA(i64 noundef %9)
  store ptr %10, ptr %3, align 8, !tbaa !17
  %11 = load i64, ptr %5, align 8, !tbaa !7
  store i64 %11, ptr %6, align 8, !tbaa !7
  call void @llvm.lifetime.end.p0(i64 8, ptr %5) #23
  %12 = load i64, ptr %6, align 8, !tbaa !7
  store i64 %12, ptr %4, align 8, !tbaa !7
  %13 = load ptr, ptr %3, align 8, !tbaa !17
  %14 = getelementptr inbounds nuw %struct.enumerator, ptr %13, i32 0, i32 0
  store i64 36, ptr %14, align 8, !tbaa !28
  %15 = load i64, ptr %4, align 8, !tbaa !7
  call void @llvm.lifetime.end.p0(i64 8, ptr %4) #23
  call void @llvm.lifetime.end.p0(i64 8, ptr %3) #23
  ret i64 %15
}

; Function Attrs: inlinehint nounwind sspstrong willreturn memory(none) uwtable
define internal zeroext i1 @RB_TEST(i64 noundef %0) #2 {
  %2 = alloca i64, align 8
  store i64 %0, ptr %2, align 8, !tbaa !7
  %3 = load i64, ptr %2, align 8, !tbaa !7
  %4 = and i64 %3, -5
  %5 = icmp ne i64 %4, 0
  ret i1 %5
}

; Function Attrs: nounwind sspstrong uwtable
define dso_local i64 @rb_enumeratorize_with_size_kw(i64 noundef %0, i64 noundef %1, i32 noundef %2, ptr noundef %3, ptr noundef %4, i32 noundef %5) #0 {
  %7 = alloca i64, align 8
  %8 = alloca i64, align 8
  %9 = alloca i32, align 4
  %10 = alloca ptr, align 8
  %11 = alloca ptr, align 8
  %12 = alloca i32, align 4
  %13 = alloca i64, align 8
  store i64 %0, ptr %7, align 8, !tbaa !7
  store i64 %1, ptr %8, align 8, !tbaa !7
  store i32 %2, ptr %9, align 4, !tbaa !11
  store ptr %3, ptr %10, align 8, !tbaa !13
  store ptr %4, ptr %11, align 8, !tbaa !16
  store i32 %5, ptr %12, align 4, !tbaa !11
  call void @llvm.lifetime.start.p0(i64 8, ptr %13) #23
  %14 = load i64, ptr @rb_cEnumerator, align 8, !tbaa !7
  store i64 %14, ptr %13, align 8, !tbaa !7
  %15 = load i64, ptr %7, align 8, !tbaa !7
  %16 = load i64, ptr @rb_cLazy, align 8, !tbaa !7
  %17 = call i64 @rb_obj_is_kind_of(i64 noundef %15, i64 noundef %16)
  %18 = call zeroext i1 @RB_TEST(i64 noundef %17) #24
  br i1 %18, label %19, label %21

19:                                               ; preds = %6
  %20 = load i64, ptr @rb_cLazy, align 8, !tbaa !7
  store i64 %20, ptr %13, align 8, !tbaa !7
  br label %33

21:                                               ; preds = %6
  %22 = load i64, ptr %7, align 8, !tbaa !7
  %23 = load i64, ptr @rb_cEnumChain, align 8, !tbaa !7
  %24 = call i64 @rb_obj_is_kind_of(i64 noundef %22, i64 noundef %23)
  %25 = call zeroext i1 @RB_TEST(i64 noundef %24) #24
  br i1 %25, label %26, label %32

26:                                               ; preds = %21
  %27 = load i64, ptr @rb_cEnumerator, align 8, !tbaa !7
  %28 = call i64 @enumerator_allocate(i64 noundef %27)
  %29 = load i64, ptr %7, align 8, !tbaa !7
  %30 = load i64, ptr @sym_each, align 8, !tbaa !7
  %31 = call i64 @enumerator_init(i64 noundef %28, i64 noundef %29, i64 noundef %30, i32 noundef 0, ptr noundef null, ptr noundef null, i64 noundef 4, i32 noundef 0)
  store i64 %31, ptr %7, align 8, !tbaa !7
  br label %32

32:                                               ; preds = %26, %21
  br label %33

33:                                               ; preds = %32, %19
  %34 = load i64, ptr %13, align 8, !tbaa !7
  %35 = call i64 @enumerator_allocate(i64 noundef %34)
  %36 = load i64, ptr %7, align 8, !tbaa !7
  %37 = load i64, ptr %8, align 8, !tbaa !7
  %38 = load i32, ptr %9, align 4, !tbaa !11
  %39 = load ptr, ptr %10, align 8, !tbaa !13
  %40 = load ptr, ptr %11, align 8, !tbaa !16
  %41 = load i32, ptr %12, align 4, !tbaa !11
  %42 = call i64 @enumerator_init(i64 noundef %35, i64 noundef %36, i64 noundef %37, i32 noundef %38, ptr noundef %39, ptr noundef %40, i64 noundef 4, i32 noundef %41)
  call void @llvm.lifetime.end.p0(i64 8, ptr %13) #23
  ret i64 %42
}