; Function Attrs: nounwind sspstrong uwtable
define dso_local range(i64 1, -7) i64 @rb_enumeratorize_with_size_kw(i64 noundef %0, i64 noundef %1, i32 noundef %2, ptr noundef %3, ptr noundef %4, i32 noundef %5) local_unnamed_addr #0 {
  %7 = load i64, ptr @rb_cEnumerator, align 8, !tbaa !7
  %8 = load i64, ptr @rb_cLazy, align 8, !tbaa !7
  %9 = tail call i64 @rb_obj_is_kind_of(i64 noundef %0, i64 noundef %8) #18
  %10 = and i64 %9, -5
  %.not = icmp eq i64 %10, 0
  br i1 %.not, label %13, label %11

11:                                               ; preds = %6
  %12 = load i64, ptr @rb_cLazy, align 8, !tbaa !7
  br label %30

13:                                               ; preds = %6
  %14 = load i64, ptr @rb_cEnumChain, align 8, !tbaa !7
  %15 = tail call i64 @rb_obj_is_kind_of(i64 noundef %0, i64 noundef %14) #18
  %16 = and i64 %15, -5
  %.not12 = icmp eq i64 %16, 0
  br i1 %.not12, label %30, label %17

17:                                               ; preds = %13
  %18 = load i64, ptr @rb_cEnumerator, align 8, !tbaa !7
  %19 = tail call i64 @rb_data_typed_object_zalloc(i64 noundef %18, i64 noundef 96, ptr noundef nonnull @enumerator_data_type) #18
  %20 = inttoptr i64 %19 to ptr
  %21 = getelementptr inbounds nuw i8, ptr %20, i64 24
  %22 = load i64, ptr %21, align 8, !tbaa !11
  %23 = and i64 %22, 2
  %.not.i.i = icmp eq i64 %23, 0
  %24 = getelementptr i8, ptr %20, i64 32
  br i1 %.not.i.i, label %25, label %enumerator_allocate.exit

25:                                               ; preds = %17
  %26 = load ptr, ptr %24, align 8, !tbaa !16
  br label %enumerator_allocate.exit

enumerator_allocate.exit:                         ; preds = %17, %25
  %27 = phi ptr [ %26, %25 ], [ %24, %17 ]
  store i64 36, ptr %27, align 8, !tbaa !17
  %28 = load i64, ptr @sym_each, align 8, !tbaa !7
  %29 = tail call fastcc i64 @enumerator_init(i64 noundef %19, i64 noundef %0, i64 noundef %28, i32 noundef 0, ptr noundef null, ptr noundef null, i64 noundef 4, i32 noundef 0)
  br label %30

30:                                               ; preds = %13, %enumerator_allocate.exit, %11
  %.09 = phi i64 [ %0, %11 ], [ %19, %enumerator_allocate.exit ], [ %0, %13 ]
  %.0 = phi i64 [ %12, %11 ], [ %7, %enumerator_allocate.exit ], [ %7, %13 ]
  %31 = tail call i64 @rb_data_typed_object_zalloc(i64 noundef %.0, i64 noundef 96, ptr noundef nonnull @enumerator_data_type) #18
  %32 = inttoptr i64 %31 to ptr
  %33 = getelementptr inbounds nuw i8, ptr %32, i64 24
  %34 = load i64, ptr %33, align 8, !tbaa !11
  %35 = and i64 %34, 2
  %.not.i.i10 = icmp eq i64 %35, 0
  %36 = getelementptr i8, ptr %32, i64 32
  br i1 %.not.i.i10, label %37, label %enumerator_allocate.exit11

37:                                               ; preds = %30
  %38 = load ptr, ptr %36, align 8, !tbaa !16
  br label %enumerator_allocate.exit11

enumerator_allocate.exit11:                       ; preds = %30, %37
  %39 = phi ptr [ %38, %37 ], [ %36, %30 ]
  store i64 36, ptr %39, align 8, !tbaa !17
  %40 = tail call fastcc i64 @enumerator_init(i64 noundef %31, i64 noundef %.09, i64 noundef %1, i32 noundef %2, ptr noundef %3, ptr noundef %4, i64 noundef 4, i32 noundef %5)
  ret i64 %31
}